; Function Attrs: mustprogress uwtable
define noundef zeroext i1 @_ZN5ZXing15DetectWhiteRectERKNS_9BitMatrixERNS_11ResultPointES4_S4_S4_(ptr nocapture noundef nonnull readonly align 8 dereferenceable(32) %0, ptr nocapture noundef nonnull writeonly align 8 dereferenceable(16) %1, ptr nocapture noundef nonnull writeonly align 8 dereferenceable(16) %2, ptr nocapture noundef nonnull writeonly align 8 dereferenceable(16) %3, ptr nocapture noundef nonnull writeonly align 8 dereferenceable(16) %4) local_unnamed_addr #0 {
  %6 = load i32, ptr %0, align 8
  %7 = sdiv i32 %6, 2
  %8 = getelementptr inbounds i8, ptr %0, i64 4
  %9 = load i32, ptr %8, align 4
  %10 = sdiv i32 %9, 2
  %11 = tail call noundef zeroext i1 @_ZN5ZXing15DetectWhiteRectERKNS_9BitMatrixEiiiRNS_11ResultPointES4_S4_S4_(ptr noundef nonnull align 8 dereferenceable(32) %0, i32 noundef 10, i32 noundef %7, i32 noundef %10, ptr noundef nonnull align 8 dereferenceable(16) %1, ptr noundef nonnull align 8 dereferenceable(16) %2, ptr noundef nonnull align 8 dereferenceable(16) %3, ptr noundef nonnull align 8 dereferenceable(16) %4)
  ret i1 %11
}